target datalayout = "e-m:e-p270:32:32-p271:32:32-p272:64:64-i64:64-i128:128-f80:128-n8:16:32:64-S128"
target triple = "x86_64-pc-linux-gnu"

@.str = private unnamed_addr constant [19 x i8] c"MISSING_EDGE_FACES\00", align 1
@.str.1 = private unnamed_addr constant [19 x i8] c"MISSING_EDGE_VERTS\00", align 1
@.str.2 = private unnamed_addr constant [19 x i8] c"MISSING_FACE_EDGES\00", align 1
@.str.3 = private unnamed_addr constant [19 x i8] c"MISSING_FACE_VERTS\00", align 1
@.str.4 = private unnamed_addr constant [19 x i8] c"MISSING_VERT_FACES\00", align 1
@.str.5 = private unnamed_addr constant [19 x i8] c"MISSING_VERT_EDGES\00", align 1
@.str.6 = private unnamed_addr constant [29 x i8] c"FAILED_CORRELATION_EDGE_FACE\00", align 1
@.str.7 = private unnamed_addr constant [29 x i8] c"FAILED_CORRELATION_FACE_VERT\00", align 1
@.str.8 = private unnamed_addr constant [29 x i8] c"FAILED_CORRELATION_FACE_EDGE\00", align 1
@.str.9 = private unnamed_addr constant [33 x i8] c"FAILED_ORIENTATION_INCIDENT_EDGE\00", align 1
@.str.10 = private unnamed_addr constant [33 x i8] c"FAILED_ORIENTATION_INCIDENT_FACE\00", align 1
@.str.11 = private unnamed_addr constant [40 x i8] c"FAILED_ORIENTATION_INCIDENT_FACES_EDGES\00", align 1
@.str.12 = private unnamed_addr constant [16 x i8] c"DEGENERATE_EDGE\00", align 1
@.str.13 = private unnamed_addr constant [18 x i8] c"NON_MANIFOLD_EDGE\00", align 1
@.str.14 = private unnamed_addr constant [20 x i8] c"INVALID_CREASE_EDGE\00", align 1
@.str.15 = private unnamed_addr constant [20 x i8] c"INVALID_CREASE_VERT\00", align 1

; Function Attrs: mustprogress nounwind uwtable
define noundef ptr @_ZN10OpenSubdiv6v3_6_03Vtr8internal5Level22getTopologyErrorStringENS3_13TopologyErrorE(i32 noundef %0) #0 align 2 {
  %2 = alloca ptr, align 8
  %3 = alloca i32, align 4
  store i32 %0, ptr %3, align 4
  %4 = load i32, ptr %3, align 4
  switch i32 %4, label %21 [
    i32 0, label %5
    i32 1, label %6
    i32 2, label %7
    i32 3, label %8
    i32 4, label %9
    i32 5, label %10
    i32 6, label %11
    i32 7, label %12
    i32 8, label %13
    i32 9, label %14
    i32 10, label %15
    i32 11, label %16
    i32 12, label %17
    i32 13, label %18
    i32 14, label %19
    i32 15, label %20
  ]

5:                                                ; preds = %1
  store ptr @.str, ptr %2, align 8
  br label %23

6:                                                ; preds = %1
  store ptr @.str.1, ptr %2, align 8
  br label %23

7:                                                ; preds = %1
  store ptr @.str.2, ptr %2, align 8
  br label %23

8:                                                ; preds = %1
  store ptr @.str.3, ptr %2, align 8
  br label %23

9:                                                ; preds = %1
  store ptr @.str.4, ptr %2, align 8
  br label %23

10:                                               ; preds = %1
  store ptr @.str.5, ptr %2, align 8
  br label %23

11:                                               ; preds = %1
  store ptr @.str.6, ptr %2, align 8
  br label %23

12:                                               ; preds = %1
  store ptr @.str.7, ptr %2, align 8
  br label %23

13:                                               ; preds = %1
  store ptr @.str.8, ptr %2, align 8
  br label %23

14:                                               ; preds = %1
  store ptr @.str.9, ptr %2, align 8
  br label %23

15:                                               ; preds = %1
  store ptr @.str.10, ptr %2, align 8
  br label %23

16:                                               ; preds = %1
  store ptr @.str.11, ptr %2, align 8
  br label %23

17:                                               ; preds = %1
  store ptr @.str.12, ptr %2, align 8
  br label %23

18:                                               ; preds = %1
  store ptr @.str.13, ptr %2, align 8
  br label %23

19:                                               ; preds = %1
  store ptr @.str.14, ptr %2, align 8
  br label %23

20:                                               ; preds = %1
  store ptr @.str.15, ptr %2, align 8
  br label %23

21:                                               ; preds = %1
  br label %22

22:                                               ; preds = %21
  store ptr null, ptr %2, align 8
  br label %23

23:                                               ; preds = %22, %20, %19, %18, %17, %16, %15, %14, %13, %12, %11, %10, %9, %8, %7, %6, %5
  %24 = load ptr, ptr %2, align 8
  ret ptr %24
}