; Function Attrs: mustprogress nofree norecurse nosync nounwind willreturn memory(none) uwtable
define noundef ptr @_ZN10OpenSubdiv6v3_6_03Vtr8internal5Level22getTopologyErrorStringENS3_13TopologyErrorE(i32 noundef %0) local_unnamed_addr #6 align 2 {
  %2 = icmp ult i32 %0, 16
  br i1 %2, label %switch.lookup, label %4

switch.lookup:                                    ; preds = %1
  %3 = zext nneg i32 %0 to i64
  %switch.gep = getelementptr inbounds nuw [16 x ptr], ptr @switch.table._ZN10OpenSubdiv6v3_6_03Vtr8internal5Level22getTopologyErrorStringENS3_13TopologyErrorE, i64 0, i64 %3
  %switch.load = load ptr, ptr %switch.gep, align 8
  br label %4

4:                                                ; preds = %1, %switch.lookup
  %.0 = phi ptr [ %switch.load, %switch.lookup ], [ null, %1 ]
  ret ptr %.0
}